ARM GAS  C:\Users\Fabian\AppData\Local\Temp\ccOzcdgB.s 			page 1


   1              		.syntax unified
   2              		.cpu cortex-m3
   3              		.fpu softvfp
   4              		.eabi_attribute 20, 1
   5              		.eabi_attribute 21, 1
   6              		.eabi_attribute 23, 3
   7              		.eabi_attribute 24, 1
   8              		.eabi_attribute 25, 1
   9              		.eabi_attribute 26, 1
  10              		.eabi_attribute 30, 1
  11              		.eabi_attribute 34, 1
  12              		.eabi_attribute 18, 4
  13              		.thumb
  14              		.syntax unified
  15              		.file	"main.c"
  16              		.text
  17              	.Ltext0:
  18              		.cfi_sections	.debug_frame
  19              		.section	.text.isr_1_Handler,"ax",%progbits
  20              		.align	2
  21              		.global	isr_1_Handler
  22              		.thumb
  23              		.thumb_func
  24              		.type	isr_1_Handler, %function
  25              	isr_1_Handler:
  26              	.LFB63:
  27              		.file 1 "main.c"
   1:main.c        **** 
   2:main.c        **** #include "project.h"
   3:main.c        **** 
   4:main.c        **** int conteo=0;
   5:main.c        **** CY_ISR(isr_1_Handler)
   6:main.c        **** {
  28              		.loc 1 6 0
  29              		.cfi_startproc
  30              		@ args = 0, pretend = 0, frame = 0
  31              		@ frame_needed = 0, uses_anonymous_args = 0
  32 0000 08B5     		push	{r3, lr}
  33              		.cfi_def_cfa_offset 8
  34              		.cfi_offset 3, -8
  35              		.cfi_offset 14, -4
   7:main.c        ****     CyDelay(100);
  36              		.loc 1 7 0
  37 0002 6420     		movs	r0, #100
  38 0004 FFF7FEFF 		bl	CyDelay
  39              	.LVL0:
   8:main.c        ****     LED_Write(~LED_Read());
  40              		.loc 1 8 0
  41 0008 FFF7FEFF 		bl	LED_Read
  42              	.LVL1:
  43 000c C043     		mvns	r0, r0
  44 000e C0B2     		uxtb	r0, r0
  45 0010 FFF7FEFF 		bl	LED_Write
  46              	.LVL2:
   9:main.c        ****     BOTON_ClearInterrupt();
  47              		.loc 1 9 0
  48 0014 FFF7FEFF 		bl	BOTON_ClearInterrupt
ARM GAS  C:\Users\Fabian\AppData\Local\Temp\ccOzcdgB.s 			page 2


  49              	.LVL3:
  10:main.c        ****     conteo++;
  50              		.loc 1 10 0
  51 0018 024A     		ldr	r2, .L3
  52 001a 1368     		ldr	r3, [r2]
  53 001c 0133     		adds	r3, r3, #1
  54 001e 1360     		str	r3, [r2]
  55 0020 08BD     		pop	{r3, pc}
  56              	.L4:
  57 0022 00BF     		.align	2
  58              	.L3:
  59 0024 00000000 		.word	.LANCHOR0
  60              		.cfi_endproc
  61              	.LFE63:
  62              		.size	isr_1_Handler, .-isr_1_Handler
  63              		.section	.text.main,"ax",%progbits
  64              		.align	2
  65              		.global	main
  66              		.thumb
  67              		.thumb_func
  68              		.type	main, %function
  69              	main:
  70              	.LFB64:
  11:main.c        **** }
  12:main.c        **** 
  13:main.c        **** 
  14:main.c        **** int main(void)
  15:main.c        **** {
  71              		.loc 1 15 0
  72              		.cfi_startproc
  73              		@ Volatile: function does not return.
  74              		@ args = 0, pretend = 0, frame = 0
  75              		@ frame_needed = 0, uses_anonymous_args = 0
  76 0000 08B5     		push	{r3, lr}
  77              		.cfi_def_cfa_offset 8
  78              		.cfi_offset 3, -8
  79              		.cfi_offset 14, -4
  16:main.c        ****     CyGlobalIntEnable; 
  80              		.loc 1 16 0
  81              		.syntax unified
  82              	@ 16 "main.c" 1
  83 0002 62B6     		CPSIE   i
  84              	@ 0 "" 2
  17:main.c        **** 
  18:main.c        ****     isr_1_StartEx(isr_1_Handler);
  85              		.loc 1 18 0
  86              		.thumb
  87              		.syntax unified
  88 0004 0148     		ldr	r0, .L8
  89 0006 FFF7FEFF 		bl	isr_1_StartEx
  90              	.LVL4:
  91              	.L6:
  92 000a FEE7     		b	.L6
  93              	.L9:
  94              		.align	2
  95              	.L8:
  96 000c 00000000 		.word	isr_1_Handler
ARM GAS  C:\Users\Fabian\AppData\Local\Temp\ccOzcdgB.s 			page 3


  97              		.cfi_endproc
  98              	.LFE64:
  99              		.size	main, .-main
 100              		.global	conteo
 101              		.bss
 102              		.align	2
 103              		.set	.LANCHOR0,. + 0
 104              		.type	conteo, %object
 105              		.size	conteo, 4
 106              	conteo:
 107 0000 00000000 		.space	4
 108              		.text
 109              	.Letext0:
 110              		.file 2 "c:\\program files (x86)\\cypress\\psoc creator\\4.4\\psoc creator\\import\\gnu\\arm\\5.4.
 111              		.file 3 "c:\\program files (x86)\\cypress\\psoc creator\\4.4\\psoc creator\\import\\gnu\\arm\\5.4.
 112              		.file 4 "Generated_Source\\PSoC5/core_cm3.h"
 113              		.file 5 "Generated_Source\\PSoC5/CyLib.h"
 114              		.file 6 "Generated_Source\\PSoC5/LED.h"
 115              		.file 7 "Generated_Source\\PSoC5/BOTON.h"
 116              		.file 8 "Generated_Source\\PSoC5/isr_1.h"